(icg.data
Data
p0
(dp1
S'optimal_score'
p2
F-103.44
sS'candidates'
p3
(lp4
(F-103.44
S'.....((((.........(((..(((...(((((.((((((........)).))))....)))))....)))..))).((((((((.((....(((..(((.....(((.((((((.(((.(((((..(((..(((.(((((..((((.((.((((.((((((((((...((.(((.((((((..............)))))).........((((((...))))))..)))))))))....))))))..)))).))))))...........(((...)))...)))))))).))).))))).))).)))))))))..)))..))).......))...))))))))))))'
p5
tp6
asS'algebra'
p7
S'mfe'
p8
sb.