(icg.data
Data
p0
(dp1
S'optimal_score'
p2
F-15.199999999999999
sS'candidates'
p3
(lp4
(F-14.800000000000001
S'.((((.....((((((.(((((....))..(((((......)))))))))).))))..))))...........'
p5
tp6
a(F-13.699999999999999
S'.((((.....((((((.(((((....))...((((......)))).))))).))))..))))...........'
p7
tp8
a(F-13.9
S'.((((.....((((((.(((((....))...((((......)))).))))).))))..))))...........'
p9
tp10
a(F-13.800000000000001
S'.((((.....((((((.((.((....))..(((((......))))).)))).))))..))))...........'
p11
tp12
a(F-15.199999999999999
S'.((((.....((((((.((.((....))..(((((......))))).)))).))))..))))...........'
p13
tp14
a(F-14.1
S'.((((.....((((((.((.((....))...((((......))))..)))).))))..))))...........'
p15
tp16
a(F-13.9
S'.((((.....((((((.((.((....))..(((((......))))).)))).))))..))))...........'
p17
tp18
a(F-15.1
S'.((((.....((((((.((.((....))..(((((......))))).)))).))))..))))...........'
p19
tp20
a(F-14.0
S'.((((.....((((((.((.((....))...((((......))))..)))).))))..))))...........'
p21
tp22
a(F-14.1
S'.((((.....((((...(((((....))..(((((......))))).)))..))))..))))...........'
p23
tp24
a(F-14.199999999999999
S'.((((.....((((...(((((....))..(((((......))))).)))..))))..))))...........'
p25
tp26
a(F-14.6
S'.((((.....((((...((((.........(((((......))))).)))).))))..))))...........'
p27
tp28
a(F-13.699999999999999
S'.((((.....((((...(((((....))..(((((......)))))..))).))))..))))...........'
p29
tp30
a(F-14.0
S'.((((.....((((...(((((....))..(((((......)))))..))).))))..))))...........'
p31
tp32
a(F-13.800000000000001
S'.((((.....((((....(((.((......(((((......)))))))))).))))..))))...........'
p33
tp34
a(F-13.800000000000001
S'(((((.....((((((.((.((....))..(((((......))))).)))).))))..))).)).........'
p35
tp36
a(F-13.699999999999999
S'(((((.....((((((.((.((....))..(((((......))))).)))).))))..))).)).........'
p37
tp38
asS'algebra'
p39
S'mfe'
p40
sb.