(icg.data
Data
p0
(dp1
S'optimal_score'
p2
I30
sS'candidates'
p3
(lp4
(I30
S'((1+((2*3)*4))+5)'
p5
tp6
a(I30
S'((1+(2*(3*4)))+5)'
p7
tp8
a(I33
S'(((1+(2*3))*4)+5)'
p9
tp10
a(I30
S'(1+(((2*3)*4)+5))'
p11
tp12
a(I30
S'(1+((2*(3*4))+5))'
p13
tp14
a(I35
S'(1+(2*((3*4)+5)))'
p15
tp16
asS'algebra'
p17
S'buyer'
p18
sb.