(icg.data
Data
p0
(dp1
S'optimal_score'
p2
I30
sS'candidates'
p3
(lp4
(I30
S'((1+((2*3)*4))+5)'
p5
tp6
a(I30
S'((1+(2*(3*4)))+5)'
p7
tp8
a(I30
S'(1+(((2*3)*4)+5))'
p9
tp10
a(I30
S'(1+((2*(3*4))+5))'
p11
tp12
asS'algebra'
p13
S'buyer'
p14
sb.