(icg.data
Data
p0
(dp1
S'optimal_score'
p2
F-167.47
sS'candidates'
p3
(lp4
(F-167.47
S'.......(((((.(((...((((.((((((((...((((((........)).))))(((((((((((....((((...((.((((((..................)))))).))..))))((((.((..((((((..((..(((.....))).))..)))).)).))..))))...))))))))))).....)))))(((((((..(((...((((((...))))))((((......(((((..(((((((((((.((((.((((..(((((......)))))..))))......((((..((.......(((((((...)))))))((((((....((((....(((.((...((((((.....))...)))))).)))...)))).....)))).)).....))...)))))))))))))).)))))...(((((..((((((((((....(((((......)))))..................((((....(((((..(((...)))..))))).))))........))))))))))))))).))))).)))))))..)))))))...........))).)))).))).))).)).'
p5
tp6
a(F-167.47
S'.......(((((.(((...((((.((((((((...((((((........)).))))(((((((((((....((((...((.((((((..................)))))).))..))))((((.((..((((((..((..(((.....))).))..)))).)).))..))))...))))))))))).....)))))(((((((..(((...((((((...))))))((((......(((((..(((((((((((.((((.((((..(((((......)))))..))))......((((..((.......(((((((...)))))))((((((....((((....(((.((...((((((.....))...)))))).)))...)))).....)))).)).....))...)))))))))))))).)))))...(((((..((((((((((....(((((......)))))..................((((....(((((..(((...)))..))))).))))........))))))))))))))).))))).)))))))..)))))))...........))).)))).))).))).)).'
p7
tp8
a(F-167.47
S'.......(((((.(((...((((.((((((((...((((((........)).))))(((((((((((....((((...((.((((((..................)))))).))..))))((((.((..((((((..((..(((.....))).))..)))).)).))..))))...))))))))))).....)))))(((((((..(((...((((((...))))))((((......(((((..((((((((((.(((((.((((..(((((......)))))..))))......((((..((.......(((((((...)))))))((((((....((((....(((.((...((((((.....))...)))))).)))...)))).....)))).)).....))...)))))))))))))).)))))...(((((..((((((((((....(((((......)))))..................((((....(((((..(((...)))..))))).))))........))))))))))))))).))))).)))))))..)))))))...........))).)))).))).))).)).'
p9
tp10
a(F-167.47
S'.......(((((.(((...((((.((((((((...((((((........)).))))(((((((((((....((((...((.((((((..................)))))).))..))))((((.((..((((((..((..(((.....))).))..)))).)).))..))))...))))))))))).....)))))(((((((..(((...((((((...))))))((((......(((((..((((((((((.(((((.((((..(((((......)))))..))))......((((..((.......(((((((...)))))))((((((....((((....(((.((...((((((.....))...)))))).)))...)))).....)))).)).....))...)))))))))))))).)))))...(((((..((((((((((....(((((......)))))..................((((....(((((..(((...)))..))))).))))........))))))))))))))).))))).)))))))..)))))))...........))).)))).))).))).)).'
p11
tp12
a(F-167.47
S'.......(((((.(((...((((.((((((((...((((((........)).))))(((((((((((....((((...((.((((((..................)))))).))..))))((((...((((((((..((..(((.....))).))..)))).)).))..))))...))))))))))).....)))))(((((((..(((...((((((...))))))((((......(((((..(((((((((((.((((.((((..(((((......)))))..))))......((((..((.......(((((((...)))))))((((((....((((....(((.((...((((((.....))...)))))).)))...)))).....)))).)).....))...)))))))))))))).)))))...(((((..((((((((((....(((((......)))))..................((((....(((((..(((...)))..))))).))))........))))))))))))))).))))).)))))))..)))))))...........))).)))).))).))).)).'
p13
tp14
a(F-167.47
S'.......(((((.(((...((((.((((((((...((((((........)).))))(((((((((((....((((...((.((((((..................)))))).))..))))((((...((((((((..((..(((.....))).))..)))).)).))..))))...))))))))))).....)))))(((((((..(((...((((((...))))))((((......(((((..(((((((((((.((((.((((..(((((......)))))..))))......((((..((.......(((((((...)))))))((((((....((((....(((.((...((((((.....))...)))))).)))...)))).....)))).)).....))...)))))))))))))).)))))...(((((..((((((((((....(((((......)))))..................((((....(((((..(((...)))..))))).))))........))))))))))))))).))))).)))))))..)))))))...........))).)))).))).))).)).'
p15
tp16
a(F-167.47
S'.......(((((.(((...((((.((((((((...((((((........)).))))(((((((((((....((((...((.((((((..................)))))).))..))))((((...((((((((..((..(((.....))).))..)))).)).))..))))...))))))))))).....)))))(((((((..(((...((((((...))))))((((......(((((..((((((((((.(((((.((((..(((((......)))))..))))......((((..((.......(((((((...)))))))((((((....((((....(((.((...((((((.....))...)))))).)))...)))).....)))).)).....))...)))))))))))))).)))))...(((((..((((((((((....(((((......)))))..................((((....(((((..(((...)))..))))).))))........))))))))))))))).))))).)))))))..)))))))...........))).)))).))).))).)).'
p17
tp18
a(F-167.47
S'.......(((((.(((...((((.((((((((...((((((........)).))))(((((((((((....((((...((.((((((..................)))))).))..))))((((...((((((((..((..(((.....))).))..)))).)).))..))))...))))))))))).....)))))(((((((..(((...((((((...))))))((((......(((((..((((((((((.(((((.((((..(((((......)))))..))))......((((..((.......(((((((...)))))))((((((....((((....(((.((...((((((.....))...)))))).)))...)))).....)))).)).....))...)))))))))))))).)))))...(((((..((((((((((....(((((......)))))..................((((....(((((..(((...)))..))))).))))........))))))))))))))).))))).)))))))..)))))))...........))).)))).))).))).)).'
p19
tp20
asS'algebra'
p21
S'mfe'
p22
sb.