(icg.data
Data
p0
(dp1
S'optimal_score'
p2
F-346.64999999999998
sS'candidates'
p3
(lp4
(F-346.64999999999998
S'........((...((((....(((((((((((.((.((.((((.((((((....(((((((((((((..(((.......(((((.(((.(((((((((..........(((((...(((((........((.((((((((((((((...(((.....(((.((.((((.((((((..((((((..............))))))((((((...((((((...))))))((((((....(((.(((((((..((((((..((((((......(((.((..((((((..((((.((..((((((((..((((((((((((...)))))))......)))))....)))))...)))..)).)))).)))))))).)))....((((((((..........((.(((((.((((....(((((((((....((((.(((....))))))).......(((((......)))))..................)).))))...........)))....)))))))))..))))))))))))))))))))))..........((((....((((((.((..(((..((((((..(((((....(((....((..(((.....)))..)).)))..)))))....))))))..)))..))))))))..))))))))))))))))))))................))))))...))))))..)))).)))))....)))...))))))).))))))).)))))))(((((....((((......(((((((....((((((((((.((.(((((....((..((((.(((.....)))))))..))..))))).))..))).........))))))).....))))))))))).))))).....)))))))))))))))))))))).))).((((.(((((((.((........(((((....(((.((........)).))).)))))(((((((.(((....(((..((((.......)))))))..............(((((........)))))...))).))))))))).)))).)))..))))..))))))).......))))))..))))))..(((....)))..)))).....)).)).)))))......))))))......(((((((........)))))))....))))...))..'
p5
tp6
a(F-346.64999999999998
S'........((...((((....(((((((((((.((.((.((((.((((((....(((((((((((((..(((.......(((((.(((.(((((((((..........(((((...(((((........((.((((((((((((((...(((.....(((.((.((((.((((((..((((((..............))))))((((((...((((((...))))))((((((....(((.(((((((..((((((..((((((......(((.((..((((((..((((.((..((((((((..((((((((((((...)))))))......)))))....)))))...)))..)).)))).)))))))).)))....((((((((..........((.(((((.((((....(((((((((....((((.(((....))))))).......(((((......)))))..................)).))))...........)))....)))))))))..))))))))))))))))))))))..........((((....((((((.((..(((..((((((..(((((....(((....((..(((.....)))..)).)))..)))))....))))))..)))..))))))))..))))))))))))))))))))................))))))...))))))..)))).)))))....)))...))))))).))))))).)))))))(((((....((((......(((((((....((((((((((.((.(((((....((..((((.(((.....)))))))..))..))))).))..))).........))))))).....))))))))))).))))).....)))))))))))))))))))))).))).((((.(((((((.((........(((((....(((.((........)).))).)))))(((((((.(((....(((..((((.......)))))))..............(((((........)))))...))).))))))))).))))).))..))))..))))))).......))))))..))))))..(((....)))..)))).....)).)).)))))......))))))......(((((((........)))))))....))))...))..'
p7
tp8
a(F-346.64999999999998
S'........((...((((....(((((((((((.((.((.((((.((((((....(((((((((((((..(((.......(((((.(((.(((((((((..........(((((...(((((........((.((((((((((((((...(((.....(((.((.((((.((((((..((((((..............))))))((((((...((((((...))))))((((((....(((.(((((((..((((((..((((((......(((.((..((((((..((((.((..((((((((..((((((((((((...)))))))......)))))....)))))...)))..)).)))).)))))))).)))....((((((((..........((.(((((.((((....(((((((((....(((.((((....))))))).......(((((......)))))..................)).))))...........)))....)))))))))..))))))))))))))))))))))..........((((....((((((.((..(((..((((((..(((((....(((....((..(((.....)))..)).)))..)))))....))))))..)))..))))))))..))))))))))))))))))))................))))))...))))))..)))).)))))....)))...))))))).))))))).)))))))(((((....((((......(((((((....((((((((((.((.(((((....((..((((.(((.....)))))))..))..))))).))..))).........))))))).....))))))))))).))))).....)))))))))))))))))))))).))).((((.(((((((.((........(((((....(((.((........)).))).)))))(((((((.(((....(((..((((.......)))))))..............(((((........)))))...))).))))))))).)))).)))..))))..))))))).......))))))..))))))..(((....)))..)))).....)).)).)))))......))))))......(((((((........)))))))....))))...))..'
p9
tp10
a(F-346.64999999999998
S'........((...((((....(((((((((((.((.((.((((.((((((....(((((((((((((..(((.......(((((.(((.(((((((((..........(((((...(((((........((.((((((((((((((...(((.....(((.((.((((.((((((..((((((..............))))))((((((...((((((...))))))((((((....(((.(((((((..((((((..((((((......(((.((..((((((..((((.((..((((((((..((((((((((((...)))))))......)))))....)))))...)))..)).)))).)))))))).)))....((((((((..........((.(((((.((((....(((((((((....(((.((((....))))))).......(((((......)))))..................)).))))...........)))....)))))))))..))))))))))))))))))))))..........((((....((((((.((..(((..((((((..(((((....(((....((..(((.....)))..)).)))..)))))....))))))..)))..))))))))..))))))))))))))))))))................))))))...))))))..)))).)))))....)))...))))))).))))))).)))))))(((((....((((......(((((((....((((((((((.((.(((((....((..((((.(((.....)))))))..))..))))).))..))).........))))))).....))))))))))).))))).....)))))))))))))))))))))).))).((((.(((((((.((........(((((....(((.((........)).))).)))))(((((((.(((....(((..((((.......)))))))..............(((((........)))))...))).))))))))).))))).))..))))..))))))).......))))))..))))))..(((....)))..)))).....)).)).)))))......))))))......(((((((........)))))))....))))...))..'
p11
tp12
a(F-346.64999999999998
S'........((...((((....(((((((((((.((.((.((((.((((((....(((((((((((((..(((.......(((((.(((.(((((((((..........(((((...(((((........((.((((((((((((((...(((.....(((.((.((((.((((((..((((((..............))))))((((((...((((((...))))))((((((....(((.(((((((..((((((..((((((......(((.((..((((((..((((.((..((((((((..((((((((((((...)))))))......)))))....)))))...)))..)).)))).)))))))).)))....((((((((..........((.((((.(((((....(((((((((....((((.(((....))))))).......(((((......)))))..................)).))))...........)))....)))))))))..))))))))))))))))))))))..........((((....((((((.((..(((..((((((..(((((....(((....((..(((.....)))..)).)))..)))))....))))))..)))..))))))))..))))))))))))))))))))................))))))...))))))..)))).)))))....)))...))))))).))))))).)))))))(((((....((((......(((((((....((((((((((.((.(((((....((..((((.(((.....)))))))..))..))))).))..))).........))))))).....))))))))))).))))).....)))))))))))))))))))))).))).((((.(((((((.((........(((((....(((.((........)).))).)))))(((((((.(((....(((..((((.......)))))))..............(((((........)))))...))).))))))))).)))).)))..))))..))))))).......))))))..))))))..(((....)))..)))).....)).)).)))))......))))))......(((((((........)))))))....))))...))..'
p13
tp14
a(F-346.64999999999998
S'........((...((((....(((((((((((.((.((.((((.((((((....(((((((((((((..(((.......(((((.(((.(((((((((..........(((((...(((((........((.((((((((((((((...(((.....(((.((.((((.((((((..((((((..............))))))((((((...((((((...))))))((((((....(((.(((((((..((((((..((((((......(((.((..((((((..((((.((..((((((((..((((((((((((...)))))))......)))))....)))))...)))..)).)))).)))))))).)))....((((((((..........((.((((.(((((....(((((((((....((((.(((....))))))).......(((((......)))))..................)).))))...........)))....)))))))))..))))))))))))))))))))))..........((((....((((((.((..(((..((((((..(((((....(((....((..(((.....)))..)).)))..)))))....))))))..)))..))))))))..))))))))))))))))))))................))))))...))))))..)))).)))))....)))...))))))).))))))).)))))))(((((....((((......(((((((....((((((((((.((.(((((....((..((((.(((.....)))))))..))..))))).))..))).........))))))).....))))))))))).))))).....)))))))))))))))))))))).))).((((.(((((((.((........(((((....(((.((........)).))).)))))(((((((.(((....(((..((((.......)))))))..............(((((........)))))...))).))))))))).))))).))..))))..))))))).......))))))..))))))..(((....)))..)))).....)).)).)))))......))))))......(((((((........)))))))....))))...))..'
p15
tp16
a(F-346.64999999999998
S'........((...((((....(((((((((((.((.((.((((.((((((....(((((((((((((..(((.......(((((.(((.(((((((((..........(((((...(((((........((.((((((((((((((...(((.....(((.((.((((.((((((..((((((..............))))))((((((...((((((...))))))((((((....(((.(((((((..((((((..((((((......(((.((..((((((..((((.((..((((((((..((((((((((((...)))))))......)))))....)))))...)))..)).)))).)))))))).)))....((((((((..........((.((((.(((((....(((((((((....(((.((((....))))))).......(((((......)))))..................)).))))...........)))....)))))))))..))))))))))))))))))))))..........((((....((((((.((..(((..((((((..(((((....(((....((..(((.....)))..)).)))..)))))....))))))..)))..))))))))..))))))))))))))))))))................))))))...))))))..)))).)))))....)))...))))))).))))))).)))))))(((((....((((......(((((((....((((((((((.((.(((((....((..((((.(((.....)))))))..))..))))).))..))).........))))))).....))))))))))).))))).....)))))))))))))))))))))).))).((((.(((((((.((........(((((....(((.((........)).))).)))))(((((((.(((....(((..((((.......)))))))..............(((((........)))))...))).))))))))).)))).)))..))))..))))))).......))))))..))))))..(((....)))..)))).....)).)).)))))......))))))......(((((((........)))))))....))))...))..'
p17
tp18
a(F-346.64999999999998
S'........((...((((....(((((((((((.((.((.((((.((((((....(((((((((((((..(((.......(((((.(((.(((((((((..........(((((...(((((........((.((((((((((((((...(((.....(((.((.((((.((((((..((((((..............))))))((((((...((((((...))))))((((((....(((.(((((((..((((((..((((((......(((.((..((((((..((((.((..((((((((..((((((((((((...)))))))......)))))....)))))...)))..)).)))).)))))))).)))....((((((((..........((.((((.(((((....(((((((((....(((.((((....))))))).......(((((......)))))..................)).))))...........)))....)))))))))..))))))))))))))))))))))..........((((....((((((.((..(((..((((((..(((((....(((....((..(((.....)))..)).)))..)))))....))))))..)))..))))))))..))))))))))))))))))))................))))))...))))))..)))).)))))....)))...))))))).))))))).)))))))(((((....((((......(((((((....((((((((((.((.(((((....((..((((.(((.....)))))))..))..))))).))..))).........))))))).....))))))))))).))))).....)))))))))))))))))))))).))).((((.(((((((.((........(((((....(((.((........)).))).)))))(((((((.(((....(((..((((.......)))))))..............(((((........)))))...))).))))))))).))))).))..))))..))))))).......))))))..))))))..(((....)))..)))).....)).)).)))))......))))))......(((((((........)))))))....))))...))..'
p19
tp20
a(F-346.64999999999998
S'........((...((((....(((((((((((.((.((.((((.((((((....(((((((((((((..(((.......(((((.(((.(((((((((..........(((((...(((((........((.((((((((((((((...(((.....((.(((.((((.((((((..((((((..............))))))((((((...((((((...))))))((((((....(((.(((((((..((((((..((((((......(((.((..((((((..((((.((..((((((((..((((((((((((...)))))))......)))))....)))))...)))..)).)))).)))))))).)))....((((((((..........((.(((((.((((....(((((((((....((((.(((....))))))).......(((((......)))))..................)).))))...........)))....)))))))))..))))))))))))))))))))))..........((((....((((((.((..(((..((((((..(((((....(((....((..(((.....)))..)).)))..)))))....))))))..)))..))))))))..))))))))))))))))))))................))))))...))))))..)))).)))))....)))...))))))).))))))).)))))))(((((....((((......(((((((....((((((((((.((.(((((....((..((((.(((.....)))))))..))..))))).))..))).........))))))).....))))))))))).))))).....)))))))))))))))))))))).))).((((.(((((((.((........(((((....(((.((........)).))).)))))(((((((.(((....(((..((((.......)))))))..............(((((........)))))...))).))))))))).)))).)))..))))..))))))).......))))))..))))))..(((....)))..)))).....)).)).)))))......))))))......(((((((........)))))))....))))...))..'
p21
tp22
a(F-346.64999999999998
S'........((...((((....(((((((((((.((.((.((((.((((((....(((((((((((((..(((.......(((((.(((.(((((((((..........(((((...(((((........((.((((((((((((((...(((.....((.(((.((((.((((((..((((((..............))))))((((((...((((((...))))))((((((....(((.(((((((..((((((..((((((......(((.((..((((((..((((.((..((((((((..((((((((((((...)))))))......)))))....)))))...)))..)).)))).)))))))).)))....((((((((..........((.(((((.((((....(((((((((....((((.(((....))))))).......(((((......)))))..................)).))))...........)))....)))))))))..))))))))))))))))))))))..........((((....((((((.((..(((..((((((..(((((....(((....((..(((.....)))..)).)))..)))))....))))))..)))..))))))))..))))))))))))))))))))................))))))...))))))..)))).)))))....)))...))))))).))))))).)))))))(((((....((((......(((((((....((((((((((.((.(((((....((..((((.(((.....)))))))..))..))))).))..))).........))))))).....))))))))))).))))).....)))))))))))))))))))))).))).((((.(((((((.((........(((((....(((.((........)).))).)))))(((((((.(((....(((..((((.......)))))))..............(((((........)))))...))).))))))))).))))).))..))))..))))))).......))))))..))))))..(((....)))..)))).....)).)).)))))......))))))......(((((((........)))))))....))))...))..'
p23
tp24
a(F-346.64999999999998
S'........((...((((....(((((((((((.((.((.((((.((((((....(((((((((((((..(((.......(((((.(((.(((((((((..........(((((...(((((........((.((((((((((((((...(((.....((.(((.((((.((((((..((((((..............))))))((((((...((((((...))))))((((((....(((.(((((((..((((((..((((((......(((.((..((((((..((((.((..((((((((..((((((((((((...)))))))......)))))....)))))...)))..)).)))).)))))))).)))....((((((((..........((.(((((.((((....(((((((((....(((.((((....))))))).......(((((......)))))..................)).))))...........)))....)))))))))..))))))))))))))))))))))..........((((....((((((.((..(((..((((((..(((((....(((....((..(((.....)))..)).)))..)))))....))))))..)))..))))))))..))))))))))))))))))))................))))))...))))))..)))).)))))....)))...))))))).))))))).)))))))(((((....((((......(((((((....((((((((((.((.(((((....((..((((.(((.....)))))))..))..))))).))..))).........))))))).....))))))))))).))))).....)))))))))))))))))))))).))).((((.(((((((.((........(((((....(((.((........)).))).)))))(((((((.(((....(((..((((.......)))))))..............(((((........)))))...))).))))))))).)))).)))..))))..))))))).......))))))..))))))..(((....)))..)))).....)).)).)))))......))))))......(((((((........)))))))....))))...))..'
p25
tp26
a(F-346.64999999999998
S'........((...((((....(((((((((((.((.((.((((.((((((....(((((((((((((..(((.......(((((.(((.(((((((((..........(((((...(((((........((.((((((((((((((...(((.....((.(((.((((.((((((..((((((..............))))))((((((...((((((...))))))((((((....(((.(((((((..((((((..((((((......(((.((..((((((..((((.((..((((((((..((((((((((((...)))))))......)))))....)))))...)))..)).)))).)))))))).)))....((((((((..........((.(((((.((((....(((((((((....(((.((((....))))))).......(((((......)))))..................)).))))...........)))....)))))))))..))))))))))))))))))))))..........((((....((((((.((..(((..((((((..(((((....(((....((..(((.....)))..)).)))..)))))....))))))..)))..))))))))..))))))))))))))))))))................))))))...))))))..)))).)))))....)))...))))))).))))))).)))))))(((((....((((......(((((((....((((((((((.((.(((((....((..((((.(((.....)))))))..))..))))).))..))).........))))))).....))))))))))).))))).....)))))))))))))))))))))).))).((((.(((((((.((........(((((....(((.((........)).))).)))))(((((((.(((....(((..((((.......)))))))..............(((((........)))))...))).))))))))).))))).))..))))..))))))).......))))))..))))))..(((....)))..)))).....)).)).)))))......))))))......(((((((........)))))))....))))...))..'
p27
tp28
a(F-346.64999999999998
S'........((...((((....(((((((((((.((.((.((((.((((((....(((((((((((((..(((.......(((((.(((.(((((((((..........(((((...(((((........((.((((((((((((((...(((.....((.(((.((((.((((((..((((((..............))))))((((((...((((((...))))))((((((....(((.(((((((..((((((..((((((......(((.((..((((((..((((.((..((((((((..((((((((((((...)))))))......)))))....)))))...)))..)).)))).)))))))).)))....((((((((..........((.((((.(((((....(((((((((....((((.(((....))))))).......(((((......)))))..................)).))))...........)))....)))))))))..))))))))))))))))))))))..........((((....((((((.((..(((..((((((..(((((....(((....((..(((.....)))..)).)))..)))))....))))))..)))..))))))))..))))))))))))))))))))................))))))...))))))..)))).)))))....)))...))))))).))))))).)))))))(((((....((((......(((((((....((((((((((.((.(((((....((..((((.(((.....)))))))..))..))))).))..))).........))))))).....))))))))))).))))).....)))))))))))))))))))))).))).((((.(((((((.((........(((((....(((.((........)).))).)))))(((((((.(((....(((..((((.......)))))))..............(((((........)))))...))).))))))))).)))).)))..))))..))))))).......))))))..))))))..(((....)))..)))).....)).)).)))))......))))))......(((((((........)))))))....))))...))..'
p29
tp30
a(F-346.64999999999998
S'........((...((((....(((((((((((.((.((.((((.((((((....(((((((((((((..(((.......(((((.(((.(((((((((..........(((((...(((((........((.((((((((((((((...(((.....((.(((.((((.((((((..((((((..............))))))((((((...((((((...))))))((((((....(((.(((((((..((((((..((((((......(((.((..((((((..((((.((..((((((((..((((((((((((...)))))))......)))))....)))))...)))..)).)))).)))))))).)))....((((((((..........((.((((.(((((....(((((((((....((((.(((....))))))).......(((((......)))))..................)).))))...........)))....)))))))))..))))))))))))))))))))))..........((((....((((((.((..(((..((((((..(((((....(((....((..(((.....)))..)).)))..)))))....))))))..)))..))))))))..))))))))))))))))))))................))))))...))))))..)))).)))))....)))...))))))).))))))).)))))))(((((....((((......(((((((....((((((((((.((.(((((....((..((((.(((.....)))))))..))..))))).))..))).........))))))).....))))))))))).))))).....)))))))))))))))))))))).))).((((.(((((((.((........(((((....(((.((........)).))).)))))(((((((.(((....(((..((((.......)))))))..............(((((........)))))...))).))))))))).))))).))..))))..))))))).......))))))..))))))..(((....)))..)))).....)).)).)))))......))))))......(((((((........)))))))....))))...))..'
p31
tp32
a(F-346.64999999999998
S'........((...((((....(((((((((((.((.((.((((.((((((....(((((((((((((..(((.......(((((.(((.(((((((((..........(((((...(((((........((.((((((((((((((...(((.....((.(((.((((.((((((..((((((..............))))))((((((...((((((...))))))((((((....(((.(((((((..((((((..((((((......(((.((..((((((..((((.((..((((((((..((((((((((((...)))))))......)))))....)))))...)))..)).)))).)))))))).)))....((((((((..........((.((((.(((((....(((((((((....(((.((((....))))))).......(((((......)))))..................)).))))...........)))....)))))))))..))))))))))))))))))))))..........((((....((((((.((..(((..((((((..(((((....(((....((..(((.....)))..)).)))..)))))....))))))..)))..))))))))..))))))))))))))))))))................))))))...))))))..)))).)))))....)))...))))))).))))))).)))))))(((((....((((......(((((((....((((((((((.((.(((((....((..((((.(((.....)))))))..))..))))).))..))).........))))))).....))))))))))).))))).....)))))))))))))))))))))).))).((((.(((((((.((........(((((....(((.((........)).))).)))))(((((((.(((....(((..((((.......)))))))..............(((((........)))))...))).))))))))).)))).)))..))))..))))))).......))))))..))))))..(((....)))..)))).....)).)).)))))......))))))......(((((((........)))))))....))))...))..'
p33
tp34
a(F-346.64999999999998
S'........((...((((....(((((((((((.((.((.((((.((((((....(((((((((((((..(((.......(((((.(((.(((((((((..........(((((...(((((........((.((((((((((((((...(((.....((.(((.((((.((((((..((((((..............))))))((((((...((((((...))))))((((((....(((.(((((((..((((((..((((((......(((.((..((((((..((((.((..((((((((..((((((((((((...)))))))......)))))....)))))...)))..)).)))).)))))))).)))....((((((((..........((.((((.(((((....(((((((((....(((.((((....))))))).......(((((......)))))..................)).))))...........)))....)))))))))..))))))))))))))))))))))..........((((....((((((.((..(((..((((((..(((((....(((....((..(((.....)))..)).)))..)))))....))))))..)))..))))))))..))))))))))))))))))))................))))))...))))))..)))).)))))....)))...))))))).))))))).)))))))(((((....((((......(((((((....((((((((((.((.(((((....((..((((.(((.....)))))))..))..))))).))..))).........))))))).....))))))))))).))))).....)))))))))))))))))))))).))).((((.(((((((.((........(((((....(((.((........)).))).)))))(((((((.(((....(((..((((.......)))))))..............(((((........)))))...))).))))))))).))))).))..))))..))))))).......))))))..))))))..(((....)))..)))).....)).)).)))))......))))))......(((((((........)))))))....))))...))..'
p35
tp36
a(F-346.64999999999998
S'........((...((((....(((((((((((.((.((.((((.((((((....(((((((((((((..(((.......(((((.(((.(((((((((..........(((((...(((((........((.((((((((((((((...(((.....(((.((.((((.((((((..((((((..............))))))((((((...((((((...))))))((((((....(((.(((((((..((((((..((((((......(((.((..((((((..((((.((..((((((((..((((((((((((...)))))))......)))))....)))))...)))..)).)))).)))))))).)))....((((((((..........((.(((((.((((....(((((((((....((((.(((....))))))).......(((((......)))))..................)).))))...........)))....)))))))))..))))))))))))))))))))))..........((((....((((((.((..(((..((((((..(((((....(((....((..(((.....)))..)).)))..)))))....))))))..)))..))))))))..))))))))))))))))))))................))))))...))))))..)))).)))))....)))...)))))))).)))))).)))))))(((((....((((......(((((((....((((((((((.((.(((((....((..((((.(((.....)))))))..))..))))).))..))).........))))))).....))))))))))).))))).....)))))))))))))))))))))).))).((((.(((((((.((........(((((....(((.((........)).))).)))))(((((((.(((....(((..((((.......)))))))..............(((((........)))))...))).))))))))).)))).)))..))))..))))))).......))))))..))))))..(((....)))..)))).....)).)).)))))......))))))......(((((((........)))))))....))))...))..'
p37
tp38
a(F-346.64999999999998
S'........((...((((....(((((((((((.((.((.((((.((((((....(((((((((((((..(((.......(((((.(((.(((((((((..........(((((...(((((........((.((((((((((((((...(((.....(((.((.((((.((((((..((((((..............))))))((((((...((((((...))))))((((((....(((.(((((((..((((((..((((((......(((.((..((((((..((((.((..((((((((..((((((((((((...)))))))......)))))....)))))...)))..)).)))).)))))))).)))....((((((((..........((.(((((.((((....(((((((((....((((.(((....))))))).......(((((......)))))..................)).))))...........)))....)))))))))..))))))))))))))))))))))..........((((....((((((.((..(((..((((((..(((((....(((....((..(((.....)))..)).)))..)))))....))))))..)))..))))))))..))))))))))))))))))))................))))))...))))))..)))).)))))....)))...)))))))).)))))).)))))))(((((....((((......(((((((....((((((((((.((.(((((....((..((((.(((.....)))))))..))..))))).))..))).........))))))).....))))))))))).))))).....)))))))))))))))))))))).))).((((.(((((((.((........(((((....(((.((........)).))).)))))(((((((.(((....(((..((((.......)))))))..............(((((........)))))...))).))))))))).))))).))..))))..))))))).......))))))..))))))..(((....)))..)))).....)).)).)))))......))))))......(((((((........)))))))....))))...))..'
p39
tp40
a(F-346.64999999999998
S'........((...((((....(((((((((((.((.((.((((.((((((....(((((((((((((..(((.......(((((.(((.(((((((((..........(((((...(((((........((.((((((((((((((...(((.....(((.((.((((.((((((..((((((..............))))))((((((...((((((...))))))((((((....(((.(((((((..((((((..((((((......(((.((..((((((..((((.((..((((((((..((((((((((((...)))))))......)))))....)))))...)))..)).)))).)))))))).)))....((((((((..........((.(((((.((((....(((((((((....(((.((((....))))))).......(((((......)))))..................)).))))...........)))....)))))))))..))))))))))))))))))))))..........((((....((((((.((..(((..((((((..(((((....(((....((..(((.....)))..)).)))..)))))....))))))..)))..))))))))..))))))))))))))))))))................))))))...))))))..)))).)))))....)))...)))))))).)))))).)))))))(((((....((((......(((((((....((((((((((.((.(((((....((..((((.(((.....)))))))..))..))))).))..))).........))))))).....))))))))))).))))).....)))))))))))))))))))))).))).((((.(((((((.((........(((((....(((.((........)).))).)))))(((((((.(((....(((..((((.......)))))))..............(((((........)))))...))).))))))))).)))).)))..))))..))))))).......))))))..))))))..(((....)))..)))).....)).)).)))))......))))))......(((((((........)))))))....))))...))..'
p41
tp42
a(F-346.64999999999998
S'........((...((((....(((((((((((.((.((.((((.((((((....(((((((((((((..(((.......(((((.(((.(((((((((..........(((((...(((((........((.((((((((((((((...(((.....(((.((.((((.((((((..((((((..............))))))((((((...((((((...))))))((((((....(((.(((((((..((((((..((((((......(((.((..((((((..((((.((..((((((((..((((((((((((...)))))))......)))))....)))))...)))..)).)))).)))))))).)))....((((((((..........((.(((((.((((....(((((((((....(((.((((....))))))).......(((((......)))))..................)).))))...........)))....)))))))))..))))))))))))))))))))))..........((((....((((((.((..(((..((((((..(((((....(((....((..(((.....)))..)).)))..)))))....))))))..)))..))))))))..))))))))))))))))))))................))))))...))))))..)))).)))))....)))...)))))))).)))))).)))))))(((((....((((......(((((((....((((((((((.((.(((((....((..((((.(((.....)))))))..))..))))).))..))).........))))))).....))))))))))).))))).....)))))))))))))))))))))).))).((((.(((((((.((........(((((....(((.((........)).))).)))))(((((((.(((....(((..((((.......)))))))..............(((((........)))))...))).))))))))).))))).))..))))..))))))).......))))))..))))))..(((....)))..)))).....)).)).)))))......))))))......(((((((........)))))))....))))...))..'
p43
tp44
a(F-346.64999999999998
S'........((...((((....(((((((((((.((.((.((((.((((((....(((((((((((((..(((.......(((((.(((.(((((((((..........(((((...(((((........((.((((((((((((((...(((.....(((.((.((((.((((((..((((((..............))))))((((((...((((((...))))))((((((....(((.(((((((..((((((..((((((......(((.((..((((((..((((.((..((((((((..((((((((((((...)))))))......)))))....)))))...)))..)).)))).)))))))).)))....((((((((..........((.((((.(((((....(((((((((....((((.(((....))))))).......(((((......)))))..................)).))))...........)))....)))))))))..))))))))))))))))))))))..........((((....((((((.((..(((..((((((..(((((....(((....((..(((.....)))..)).)))..)))))....))))))..)))..))))))))..))))))))))))))))))))................))))))...))))))..)))).)))))....)))...)))))))).)))))).)))))))(((((....((((......(((((((....((((((((((.((.(((((....((..((((.(((.....)))))))..))..))))).))..))).........))))))).....))))))))))).))))).....)))))))))))))))))))))).))).((((.(((((((.((........(((((....(((.((........)).))).)))))(((((((.(((....(((..((((.......)))))))..............(((((........)))))...))).))))))))).)))).)))..))))..))))))).......))))))..))))))..(((....)))..)))).....)).)).)))))......))))))......(((((((........)))))))....))))...))..'
p45
tp46
a(F-346.64999999999998
S'........((...((((....(((((((((((.((.((.((((.((((((....(((((((((((((..(((.......(((((.(((.(((((((((..........(((((...(((((........((.((((((((((((((...(((.....(((.((.((((.((((((..((((((..............))))))((((((...((((((...))))))((((((....(((.(((((((..((((((..((((((......(((.((..((((((..((((.((..((((((((..((((((((((((...)))))))......)))))....)))))...)))..)).)))).)))))))).)))....((((((((..........((.((((.(((((....(((((((((....((((.(((....))))))).......(((((......)))))..................)).))))...........)))....)))))))))..))))))))))))))))))))))..........((((....((((((.((..(((..((((((..(((((....(((....((..(((.....)))..)).)))..)))))....))))))..)))..))))))))..))))))))))))))))))))................))))))...))))))..)))).)))))....)))...)))))))).)))))).)))))))(((((....((((......(((((((....((((((((((.((.(((((....((..((((.(((.....)))))))..))..))))).))..))).........))))))).....))))))))))).))))).....)))))))))))))))))))))).))).((((.(((((((.((........(((((....(((.((........)).))).)))))(((((((.(((....(((..((((.......)))))))..............(((((........)))))...))).))))))))).))))).))..))))..))))))).......))))))..))))))..(((....)))..)))).....)).)).)))))......))))))......(((((((........)))))))....))))...))..'
p47
tp48
a(F-346.64999999999998
S'........((...((((....(((((((((((.((.((.((((.((((((....(((((((((((((..(((.......(((((.(((.(((((((((..........(((((...(((((........((.((((((((((((((...(((.....(((.((.((((.((((((..((((((..............))))))((((((...((((((...))))))((((((....(((.(((((((..((((((..((((((......(((.((..((((((..((((.((..((((((((..((((((((((((...)))))))......)))))....)))))...)))..)).)))).)))))))).)))....((((((((..........((.((((.(((((....(((((((((....(((.((((....))))))).......(((((......)))))..................)).))))...........)))....)))))))))..))))))))))))))))))))))..........((((....((((((.((..(((..((((((..(((((....(((....((..(((.....)))..)).)))..)))))....))))))..)))..))))))))..))))))))))))))))))))................))))))...))))))..)))).)))))....)))...)))))))).)))))).)))))))(((((....((((......(((((((....((((((((((.((.(((((....((..((((.(((.....)))))))..))..))))).))..))).........))))))).....))))))))))).))))).....)))))))))))))))))))))).))).((((.(((((((.((........(((((....(((.((........)).))).)))))(((((((.(((....(((..((((.......)))))))..............(((((........)))))...))).))))))))).)))).)))..))))..))))))).......))))))..))))))..(((....)))..)))).....)).)).)))))......))))))......(((((((........)))))))....))))...))..'
p49
tp50
a(F-346.64999999999998
S'........((...((((....(((((((((((.((.((.((((.((((((....(((((((((((((..(((.......(((((.(((.(((((((((..........(((((...(((((........((.((((((((((((((...(((.....(((.((.((((.((((((..((((((..............))))))((((((...((((((...))))))((((((....(((.(((((((..((((((..((((((......(((.((..((((((..((((.((..((((((((..((((((((((((...)))))))......)))))....)))))...)))..)).)))).)))))))).)))....((((((((..........((.((((.(((((....(((((((((....(((.((((....))))))).......(((((......)))))..................)).))))...........)))....)))))))))..))))))))))))))))))))))..........((((....((((((.((..(((..((((((..(((((....(((....((..(((.....)))..)).)))..)))))....))))))..)))..))))))))..))))))))))))))))))))................))))))...))))))..)))).)))))....)))...)))))))).)))))).)))))))(((((....((((......(((((((....((((((((((.((.(((((....((..((((.(((.....)))))))..))..))))).))..))).........))))))).....))))))))))).))))).....)))))))))))))))))))))).))).((((.(((((((.((........(((((....(((.((........)).))).)))))(((((((.(((....(((..((((.......)))))))..............(((((........)))))...))).))))))))).))))).))..))))..))))))).......))))))..))))))..(((....)))..)))).....)).)).)))))......))))))......(((((((........)))))))....))))...))..'
p51
tp52
a(F-346.64999999999998
S'........((...((((....(((((((((((.((.((.((((.((((((....(((((((((((((..(((.......(((((.(((.(((((((((..........(((((...(((((........((.((((((((((((((...(((.....((.(((.((((.((((((..((((((..............))))))((((((...((((((...))))))((((((....(((.(((((((..((((((..((((((......(((.((..((((((..((((.((..((((((((..((((((((((((...)))))))......)))))....)))))...)))..)).)))).)))))))).)))....((((((((..........((.(((((.((((....(((((((((....((((.(((....))))))).......(((((......)))))..................)).))))...........)))....)))))))))..))))))))))))))))))))))..........((((....((((((.((..(((..((((((..(((((....(((....((..(((.....)))..)).)))..)))))....))))))..)))..))))))))..))))))))))))))))))))................))))))...))))))..)))).)))))....)))...)))))))).)))))).)))))))(((((....((((......(((((((....((((((((((.((.(((((....((..((((.(((.....)))))))..))..))))).))..))).........))))))).....))))))))))).))))).....)))))))))))))))))))))).))).((((.(((((((.((........(((((....(((.((........)).))).)))))(((((((.(((....(((..((((.......)))))))..............(((((........)))))...))).))))))))).)))).)))..))))..))))))).......))))))..))))))..(((....)))..)))).....)).)).)))))......))))))......(((((((........)))))))....))))...))..'
p53
tp54
a(F-346.64999999999998
S'........((...((((....(((((((((((.((.((.((((.((((((....(((((((((((((..(((.......(((((.(((.(((((((((..........(((((...(((((........((.((((((((((((((...(((.....((.(((.((((.((((((..((((((..............))))))((((((...((((((...))))))((((((....(((.(((((((..((((((..((((((......(((.((..((((((..((((.((..((((((((..((((((((((((...)))))))......)))))....)))))...)))..)).)))).)))))))).)))....((((((((..........((.(((((.((((....(((((((((....((((.(((....))))))).......(((((......)))))..................)).))))...........)))....)))))))))..))))))))))))))))))))))..........((((....((((((.((..(((..((((((..(((((....(((....((..(((.....)))..)).)))..)))))....))))))..)))..))))))))..))))))))))))))))))))................))))))...))))))..)))).)))))....)))...)))))))).)))))).)))))))(((((....((((......(((((((....((((((((((.((.(((((....((..((((.(((.....)))))))..))..))))).))..))).........))))))).....))))))))))).))))).....)))))))))))))))))))))).))).((((.(((((((.((........(((((....(((.((........)).))).)))))(((((((.(((....(((..((((.......)))))))..............(((((........)))))...))).))))))))).))))).))..))))..))))))).......))))))..))))))..(((....)))..)))).....)).)).)))))......))))))......(((((((........)))))))....))))...))..'
p55
tp56
a(F-346.64999999999998
S'........((...((((....(((((((((((.((.((.((((.((((((....(((((((((((((..(((.......(((((.(((.(((((((((..........(((((...(((((........((.((((((((((((((...(((.....((.(((.((((.((((((..((((((..............))))))((((((...((((((...))))))((((((....(((.(((((((..((((((..((((((......(((.((..((((((..((((.((..((((((((..((((((((((((...)))))))......)))))....)))))...)))..)).)))).)))))))).)))....((((((((..........((.(((((.((((....(((((((((....(((.((((....))))))).......(((((......)))))..................)).))))...........)))....)))))))))..))))))))))))))))))))))..........((((....((((((.((..(((..((((((..(((((....(((....((..(((.....)))..)).)))..)))))....))))))..)))..))))))))..))))))))))))))))))))................))))))...))))))..)))).)))))....)))...)))))))).)))))).)))))))(((((....((((......(((((((....((((((((((.((.(((((....((..((((.(((.....)))))))..))..))))).))..))).........))))))).....))))))))))).))))).....)))))))))))))))))))))).))).((((.(((((((.((........(((((....(((.((........)).))).)))))(((((((.(((....(((..((((.......)))))))..............(((((........)))))...))).))))))))).)))).)))..))))..))))))).......))))))..))))))..(((....)))..)))).....)).)).)))))......))))))......(((((((........)))))))....))))...))..'
p57
tp58
a(F-346.64999999999998
S'........((...((((....(((((((((((.((.((.((((.((((((....(((((((((((((..(((.......(((((.(((.(((((((((..........(((((...(((((........((.((((((((((((((...(((.....((.(((.((((.((((((..((((((..............))))))((((((...((((((...))))))((((((....(((.(((((((..((((((..((((((......(((.((..((((((..((((.((..((((((((..((((((((((((...)))))))......)))))....)))))...)))..)).)))).)))))))).)))....((((((((..........((.(((((.((((....(((((((((....(((.((((....))))))).......(((((......)))))..................)).))))...........)))....)))))))))..))))))))))))))))))))))..........((((....((((((.((..(((..((((((..(((((....(((....((..(((.....)))..)).)))..)))))....))))))..)))..))))))))..))))))))))))))))))))................))))))...))))))..)))).)))))....)))...)))))))).)))))).)))))))(((((....((((......(((((((....((((((((((.((.(((((....((..((((.(((.....)))))))..))..))))).))..))).........))))))).....))))))))))).))))).....)))))))))))))))))))))).))).((((.(((((((.((........(((((....(((.((........)).))).)))))(((((((.(((....(((..((((.......)))))))..............(((((........)))))...))).))))))))).))))).))..))))..))))))).......))))))..))))))..(((....)))..)))).....)).)).)))))......))))))......(((((((........)))))))....))))...))..'
p59
tp60
a(F-346.64999999999998
S'........((...((((....(((((((((((.((.((.((((.((((((....(((((((((((((..(((.......(((((.(((.(((((((((..........(((((...(((((........((.((((((((((((((...(((.....((.(((.((((.((((((..((((((..............))))))((((((...((((((...))))))((((((....(((.(((((((..((((((..((((((......(((.((..((((((..((((.((..((((((((..((((((((((((...)))))))......)))))....)))))...)))..)).)))).)))))))).)))....((((((((..........((.((((.(((((....(((((((((....((((.(((....))))))).......(((((......)))))..................)).))))...........)))....)))))))))..))))))))))))))))))))))..........((((....((((((.((..(((..((((((..(((((....(((....((..(((.....)))..)).)))..)))))....))))))..)))..))))))))..))))))))))))))))))))................))))))...))))))..)))).)))))....)))...)))))))).)))))).)))))))(((((....((((......(((((((....((((((((((.((.(((((....((..((((.(((.....)))))))..))..))))).))..))).........))))))).....))))))))))).))))).....)))))))))))))))))))))).))).((((.(((((((.((........(((((....(((.((........)).))).)))))(((((((.(((....(((..((((.......)))))))..............(((((........)))))...))).))))))))).)))).)))..))))..))))))).......))))))..))))))..(((....)))..)))).....)).)).)))))......))))))......(((((((........)))))))....))))...))..'
p61
tp62
a(F-346.64999999999998
S'........((...((((....(((((((((((.((.((.((((.((((((....(((((((((((((..(((.......(((((.(((.(((((((((..........(((((...(((((........((.((((((((((((((...(((.....((.(((.((((.((((((..((((((..............))))))((((((...((((((...))))))((((((....(((.(((((((..((((((..((((((......(((.((..((((((..((((.((..((((((((..((((((((((((...)))))))......)))))....)))))...)))..)).)))).)))))))).)))....((((((((..........((.((((.(((((....(((((((((....((((.(((....))))))).......(((((......)))))..................)).))))...........)))....)))))))))..))))))))))))))))))))))..........((((....((((((.((..(((..((((((..(((((....(((....((..(((.....)))..)).)))..)))))....))))))..)))..))))))))..))))))))))))))))))))................))))))...))))))..)))).)))))....)))...)))))))).)))))).)))))))(((((....((((......(((((((....((((((((((.((.(((((....((..((((.(((.....)))))))..))..))))).))..))).........))))))).....))))))))))).))))).....)))))))))))))))))))))).))).((((.(((((((.((........(((((....(((.((........)).))).)))))(((((((.(((....(((..((((.......)))))))..............(((((........)))))...))).))))))))).))))).))..))))..))))))).......))))))..))))))..(((....)))..)))).....)).)).)))))......))))))......(((((((........)))))))....))))...))..'
p63
tp64
a(F-346.64999999999998
S'........((...((((....(((((((((((.((.((.((((.((((((....(((((((((((((..(((.......(((((.(((.(((((((((..........(((((...(((((........((.((((((((((((((...(((.....((.(((.((((.((((((..((((((..............))))))((((((...((((((...))))))((((((....(((.(((((((..((((((..((((((......(((.((..((((((..((((.((..((((((((..((((((((((((...)))))))......)))))....)))))...)))..)).)))).)))))))).)))....((((((((..........((.((((.(((((....(((((((((....(((.((((....))))))).......(((((......)))))..................)).))))...........)))....)))))))))..))))))))))))))))))))))..........((((....((((((.((..(((..((((((..(((((....(((....((..(((.....)))..)).)))..)))))....))))))..)))..))))))))..))))))))))))))))))))................))))))...))))))..)))).)))))....)))...)))))))).)))))).)))))))(((((....((((......(((((((....((((((((((.((.(((((....((..((((.(((.....)))))))..))..))))).))..))).........))))))).....))))))))))).))))).....)))))))))))))))))))))).))).((((.(((((((.((........(((((....(((.((........)).))).)))))(((((((.(((....(((..((((.......)))))))..............(((((........)))))...))).))))))))).)))).)))..))))..))))))).......))))))..))))))..(((....)))..)))).....)).)).)))))......))))))......(((((((........)))))))....))))...))..'
p65
tp66
a(F-346.64999999999998
S'........((...((((....(((((((((((.((.((.((((.((((((....(((((((((((((..(((.......(((((.(((.(((((((((..........(((((...(((((........((.((((((((((((((...(((.....((.(((.((((.((((((..((((((..............))))))((((((...((((((...))))))((((((....(((.(((((((..((((((..((((((......(((.((..((((((..((((.((..((((((((..((((((((((((...)))))))......)))))....)))))...)))..)).)))).)))))))).)))....((((((((..........((.((((.(((((....(((((((((....(((.((((....))))))).......(((((......)))))..................)).))))...........)))....)))))))))..))))))))))))))))))))))..........((((....((((((.((..(((..((((((..(((((....(((....((..(((.....)))..)).)))..)))))....))))))..)))..))))))))..))))))))))))))))))))................))))))...))))))..)))).)))))....)))...)))))))).)))))).)))))))(((((....((((......(((((((....((((((((((.((.(((((....((..((((.(((.....)))))))..))..))))).))..))).........))))))).....))))))))))).))))).....)))))))))))))))))))))).))).((((.(((((((.((........(((((....(((.((........)).))).)))))(((((((.(((....(((..((((.......)))))))..............(((((........)))))...))).))))))))).))))).))..))))..))))))).......))))))..))))))..(((....)))..)))).....)).)).)))))......))))))......(((((((........)))))))....))))...))..'
p67
tp68
asS'algebra'
p69
S'mfe'
p70
sb.