(icg.data
Data
p0
(dp1
S'optimal_score'
p2
F-18.199999999999999
sS'candidates'
p3
(lp4
(F-17.800000000000001
S'.((((.....((((((.(((((....))..(((((......)))))))))).))))..))))...........'
p5
tp6
a(F-17.399999999999999
S'.((((.....((((((.(((((....))...((((......)))).))))).))))..))))...........'
p7
tp8
a(F-17.800000000000001
S'.((((.....((((((.((.((....))...((((......))))..)))).))))..))))...........'
p9
tp10
a(F-18.199999999999999
S'.((((.....((((((.((.((....))..(((((......))))).)))).))))..))))...........'
p11
tp12
a(F-17.199999999999999
S'.((((.....((((...(((((....))..(((((......))))).)))..))))..))))...........'
p13
tp14
a(F-16.800000000000001
S'.((((.....((((...(((((....))...((((......))))..)))..))))..))))...........'
p15
tp16
a(F-17.100000000000001
S'.((((.....((((...(((((....))..(((((......)))))..))).))))..))))...........'
p17
tp18
a(F-16.600000000000001
S'.((((.....((((...(((((....))...((((......))))...))).))))..))))...........'
p19
tp20
a(F-16.5
S'.(((......((((((.((.((....))..(((((......))))).)))).))))...)))...........'
p21
tp22
asS'algebra'
p23
S'mfe'
p24
sb.