(icg.data
Data
p0
(dp1
S'optimal_score'
p2
F-18.199999999999999
sS'candidates'
p3
(lp4
(F-18.199999999999999
S'.((((.....((((((.((.((....))..(((((......))))).)))).))))..))))...........'
p5
tp6
asS'algebra'
p7
S'mfe'
p8
sb.