(icg.data
WindowData
p0
(dp1
S'windows'
p2
(lp3
((I1
I70
tp4
(icg.data
Data
p5
(dp6
S'optimal_score'
p7
(icg.c.windowtranslate
Equal
p8
(dp9
bsS'candidates'
p10
(lp11
(F-28.100000000000001
S'.(((((((((.....)))))))))........(((((((((.....))))))))).....(((....)))'
p12
tp13
a(F-28.100000000000001
S'.(((((((((.....)))))))))........(((((((((.....))))))))).(((........)))'
p14
tp15
a(F-28.100000000000001
S'.(((((((((.....)))))))))........(((((((((.....))))))))).(((.....)))...'
p16
tp17
asS'algebra'
p18
S''
p19
sbtp20
a((I11
I80
tp21
(icg.data
Data
p22
(dp23
g7
(icg.c.windowtranslate
Equal
p24
(dp25
bsg10
(lp26
(F-25.399999999999999
S'.(((((((((((......)))))))))))..((((.....))))...((((((.......))))))....'
p27
tp28
asg18
g19
sbtp29
a((I21
I90
tp30
(icg.data
Data
p31
(dp32
g7
(icg.c.windowtranslate
Equal
p33
(dp34
bsg10
(lp35
(F-22.5
S'............(((((((((.....)))))))))..((((((.......))))))..((((....))))'
p36
tp37
asg18
g19
sbtp38
a((I31
I100
tp39
(icg.data
Data
p40
(dp41
g7
(icg.c.windowtranslate
Equal
p42
(dp43
bsg10
(lp44
(F-24.899999999999999
S'..(((((((((.....)))))))))...(((((.......))))).((((((....))))))........'
p45
tp46
asg18
g19
sbtp47
a((I41
I110
tp48
(icg.data
Data
p49
(dp50
g7
(icg.c.windowtranslate
Equal
p51
(dp52
bsg10
(lp53
(F-13.699999999999999
S'.........(((((.....)))))......(((((....))))).......(((((.....)))))....'
p54
tp55
asg18
g19
sbtp56
a((I51
I120
tp57
(icg.data
Data
p58
(dp59
g7
(icg.c.windowtranslate
Equal
p60
(dp61
bsg10
(lp62
(F-16.199999999999999
S'.......((((((.......)))))).(((((....))))).((((((..........))))))......'
p63
tp64
asg18
g19
sbtp65
a((I61
I130
tp66
(icg.data
Data
p67
(dp68
g7
(icg.c.windowtranslate
Equal
p69
(dp70
bsg10
(lp71
(F-11.0
S'...((((......)))).((((....)))).(((((((..........)))))))...............'
p72
tp73
asg18
g19
sbtp74
a((I71
I140
tp75
(icg.data
Data
p76
(dp77
g7
(icg.c.windowtranslate
Equal
p78
(dp79
bsg10
(lp80
(F-11.5
S'......(((((......))))).(((((..........))))).(((((..........)))))......'
p81
tp82
asg18
g19
sbtp83
asb.