(icg.data
WindowData
p0
(dp1
S'windows'
p2
(lp3
((I1
I70
tp4
(icg.data
Data
p5
(dp6
S'optimal_score'
p7
(icg.c.windowtranslate
Equal
p8
(dp9
bsS'candidates'
p10
(lp11
(F-27.300000000000001
S'...((((((((.......))))))))......(((((((((.....))))))))).....(((....)))'
p12
tp13
a(F-26.0
S'...((((((((.......))))))))......(((((((((.....))))))))).....((......))'
p14
tp15
a(F-27.300000000000001
S'...((((((((.......))))))))......(((((((((.....))))))))).(((........)))'
p16
tp17
a(F-27.300000000000001
S'...((((((((.......))))))))......(((((((((.....))))))))).(((.....)))...'
p18
tp19
a(F-25.5
S'...((((((((.......))))))))......(((((((((.....))))))))).((.......))...'
p20
tp21
a(F-25.800000000000001
S'...((((((((.......))))))))......(((((((((.....))))))))).((....))......'
p22
tp23
a(F-26.5
S'..((((((((.....)))))))).........(((((((((.....))))))))).....(((....)))'
p24
tp25
a(F-26.5
S'..((((((((.....)))))))).........(((((((((.....))))))))).(((........)))'
p26
tp27
a(F-26.5
S'..((((((((.....)))))))).........(((((((((.....))))))))).(((.....)))...'
p28
tp29
a(F-28.100000000000001
S'.(((((((((.....)))))))))........(((((((((.....))))))))).....(((....)))'
p30
tp31
a(F-26.800000000000001
S'.(((((((((.....)))))))))........(((((((((.....))))))))).....((......))'
p32
tp33
a(F-25.300000000000001
S'.(((((((((.....)))))))))........((((((((.......)))))))).....(((....)))'
p34
tp35
a(F-25.800000000000001
S'.((((((((.......))))))))........(((((((((.....))))))))).....(((....)))'
p36
tp37
a(F-28.100000000000001
S'.(((((((((.....)))))))))........(((((((((.....))))))))).(((........)))'
p38
tp39
a(F-25.699999999999999
S'.(((((((((.....)))))))))........(((((((((.....))))))))).((..........))'
p40
tp41
a(F-25.300000000000001
S'.(((((((((.....)))))))))........((((((((.......)))))))).(((........)))'
p42
tp43
a(F-25.800000000000001
S'.((((((((.......))))))))........(((((((((.....))))))))).(((........)))'
p44
tp45
a(F-25.5
S'.(((((((.....)))))))............(((((((((.....))))))))).....(((....)))'
p46
tp47
a(F-25.5
S'.(((((((.....)))))))............(((((((((.....))))))))).(((........)))'
p48
tp49
a(F-25.699999999999999
S'.(((((((((.....)))))))))........(((((((((.....)))))))))......((....)).'
p50
tp51
a(F-25.699999999999999
S'.(((((((((.....)))))))))........(((((((((.....)))))))))..((........)).'
p52
tp53
a(F-28.100000000000001
S'.(((((((((.....)))))))))........(((((((((.....))))))))).(((.....)))...'
p54
tp55
a(F-26.300000000000001
S'.(((((((((.....)))))))))........(((((((((.....))))))))).((.......))...'
p56
tp57
a(F-25.300000000000001
S'.(((((((((.....)))))))))........((((((((.......)))))))).(((.....)))...'
p58
tp59
a(F-25.800000000000001
S'.((((((((.......))))))))........(((((((((.....))))))))).(((.....)))...'
p60
tp61
a(F-25.5
S'.(((((((.....)))))))............(((((((((.....))))))))).(((.....)))...'
p62
tp63
a(F-25.699999999999999
S'.(((((((((.....)))))))))........(((((((((.....)))))))))..((.....))....'
p64
tp65
a(F-26.600000000000001
S'.(((((((((.....)))))))))........(((((((((.....))))))))).((....))......'
p66
tp67
asS'algebra'
p68
S''
p69
sbtp70
a((I11
I80
tp71
(icg.data
Data
p72
(dp73
g7
(icg.c.windowtranslate
Equal
p74
(dp75
bsg10
(lp76
(F-23.399999999999999
S'...((((((........)))))).(((((((.....)))))))....((((((.......))))))....'
p77
tp78
a(F-23.300000000000001
S'..((((((((((......))))))))))....((((...))))....((((((.......))))))....'
p79
tp80
a(F-23.600000000000001
S'..((((((((((......))))))))))....(((.....)))....((((((.......))))))....'
p81
tp82
a(F-23.899999999999999
S'..((((((((((......))))))))))...(((((...)))))...((((((.......))))))....'
p83
tp84
a(F-24.199999999999999
S'..((((((((((......))))))))))...((((.....))))...((((((.......))))))....'
p85
tp86
a(F-22.899999999999999
S'..((((((((((......)))))))))).((.....)).........((((((.......))))))....'
p87
tp88
a(F-23.399999999999999
S'..(((((((........))))))).((((((.....)))))).....((((((.......))))))....'
p89
tp90
a(F-23.0
S'..(((......)))........(((((((((.....)))))))))..((((((.......))))))....'
p91
tp92
a(F-23.300000000000001
S'.(((((((((((......)))))))))))..........((((((...))))))..((((...))))...'
p93
tp94
a(F-23.600000000000001
S'.(((((((((((......)))))))))))..........((((((...))))))..(((.....)))...'
p95
tp96
a(F-22.899999999999999
S'.(((((((((((......)))))))))))....(((...))).....((((((.......))))))....'
p97
tp98
a(F-23.199999999999999
S'.(((((((((((......)))))))))))....((.....)).....((((((.......))))))....'
p99
tp100
a(F-24.5
S'.(((((((((((......)))))))))))...((((...))))....((((((.......))))))....'
p101
tp102
a(F-24.800000000000001
S'.(((((((((((......)))))))))))...(((.....)))....((((((.......))))))....'
p103
tp104
a(F-25.100000000000001
S'.(((((((((((......)))))))))))..(((((...)))))...((((((.......))))))....'
p105
tp106
a(F-23.100000000000001
S'.(((((((((((......)))))))))))..(((((...)))))...(((((.........)))))....'
p107
tp108
a(F-25.399999999999999
S'.(((((((((((......)))))))))))..((((.....))))...((((((.......))))))....'
p109
tp110
a(F-23.399999999999999
S'.(((((((((((......)))))))))))..((((.....))))...(((((.........)))))....'
p111
tp112
a(F-23.600000000000001
S'.((((......)))).......(((((((((.....)))))))))..((((((.......))))))....'
p113
tp114
a(F-23.0
S'.(((((((((((......)))))))))))..((((.....))))....(((((.......))))).....'
p115
tp116
asg68
g69
sbtp117
a((I21
I90
tp118
(icg.data
Data
p119
(dp120
g7
(icg.c.windowtranslate
Equal
p121
(dp122
bsg10
(lp123
(F-21.399999999999999
S'............(((((((((.....)))))))))...(((((.......)))))...((((....))))'
p124
tp125
a(F-20.699999999999999
S'............(((((((((.....)))))))))...(((((.......)))))...(((......)))'
p126
tp127
a(F-20.699999999999999
S'............(((((((((.....)))))))))..((((((.......))))))......((....))'
p128
tp129
a(F-22.5
S'............(((((((((.....)))))))))..((((((.......))))))..((((....))))'
p130
tp131
a(F-21.800000000000001
S'............(((((((((.....)))))))))..((((((.......))))))..(((......)))'
p132
tp133
a(F-20.699999999999999
S'............(((((((((.....)))))))))..((((((.......))))))..((........))'
p134
tp135
a(F-20.5
S'............(((((((((.....)))))))))..(((((.........)))))..((((....))))'
p136
tp137
a(F-20.800000000000001
S'............(((((((((.....)))))))))...(((((.......)))))..(((.....)))..'
p138
tp139
a(F-21.899999999999999
S'............(((((((((.....)))))))))..((((((.......)))))).(((.....)))..'
p140
tp141
a(F-20.5
S'............(((((((((.....))))))))).(((.....)))...(((((....)))))......'
p142
tp143
asg68
g69
sbtp144
a((I31
I100
tp145
(icg.data
Data
p146
(dp147
g7
(icg.c.windowtranslate
Equal
p148
(dp149
bsg10
(lp150
(F-24.899999999999999
S'..(((((((((.....)))))))))...(((((.......))))).((((((....))))))........'
p151
tp152
a(F-24.199999999999999
S'..(((((((((.....)))))))))...(((((.......))))).(((((......)))))........'
p153
tp154
a(F-23.100000000000001
S'..(((((((((.....)))))))))...(((((.......))))).((((........))))........'
p155
tp156
a(F-22.899999999999999
S'..(((((((((.....)))))))))...((((.........)))).((((((....))))))........'
p157
tp158
a(F-23.600000000000001
S'..(((((((((.....)))))))))...(((((.......)))))..(((((....))))).........'
p159
tp160
a(F-22.899999999999999
S'..(((((((((.....)))))))))...(((((.......)))))..((((......)))).........'
p161
tp162
a(F-24.699999999999999
S'..(((((((((.....)))))))))..((((((.......)))))).(((((....))))).........'
p163
tp164
a(F-24.0
S'..(((((((((.....)))))))))..((((((.......)))))).((((......)))).........'
p165
tp166
a(F-22.899999999999999
S'..(((((((((.....)))))))))..((((((.......)))))).(((........))).........'
p167
tp168
a(F-22.699999999999999
S'..(((((((((.....)))))))))..(((((.........))))).(((((....))))).........'
p169
tp170
a(F-22.5
S'..(((((((((.....)))))))))..((((((.......))))))..((((....))))..........'
p171
tp172
asg68
g69
sbtp173
a((I41
I110
tp174
(icg.data
Data
p175
(dp176
g7
(icg.c.windowtranslate
Equal
p177
(dp178
bsg10
(lp179
(F-13.699999999999999
S'.........(((((.....)))))......(((((....))))).......(((((.....)))))....'
p180
tp181
a(F-12.4
S'.........(((((.....)))))......(((((....))))).......((((.......))))....'
p182
tp183
a(F-13.199999999999999
S'.........(((((.....)))))......(((((....)))))......(((((...))))).......'
p184
tp185
a(F-13.4
S'.........(((((.....)))))......(((((....)))))......((((.....)))).......'
p186
tp187
asg68
g69
sbtp188
a((I51
I120
tp189
(icg.data
Data
p190
(dp191
g7
(icg.c.windowtranslate
Equal
p192
(dp193
bsg10
(lp194
(F-15.1
S'........(((((.......)))))..(((((....))))).((((((..........))))))......'
p195
tp196
a(F-15.300000000000001
S'.......((((((.......))))))..((((....)))).(((((((..........))))))).....'
p197
tp198
a(F-14.6
S'.......((((((.......))))))..(((......))).(((((((..........))))))).....'
p199
tp200
a(F-14.699999999999999
S'.......((((((.......))))))..((((....))))..((((((..........))))))......'
p201
tp202
a(F-16.199999999999999
S'.......((((((.......)))))).(((((....))))).((((((..........))))))......'
p203
tp204
a(F-15.5
S'.......((((((.......)))))).((((......)))).((((((..........))))))......'
p205
tp206
asg68
g69
sbtp207
a((I61
I130
tp208
(icg.data
Data
p209
(dp210
g7
(icg.c.windowtranslate
Equal
p211
(dp212
bsg10
(lp213
(F-10.4
S'......(((.....))).((((....)))).(((((((..........)))))))...............'
p214
tp215
a(F-10.199999999999999
S'....(((......))).(((((....))))).((((((..........))))))................'
p216
tp217
a(F-11.0
S'...((((......)))).((((....)))).(((((((..........)))))))...............'
p218
tp219
a(F-10.300000000000001
S'...((((......)))).(((......))).(((((((..........)))))))...............'
p220
tp221
a(F-10.4
S'...(((........))).((((....)))).(((((((..........)))))))...............'
p222
tp223
a(F-10.4
S'...((((......)))).((((....))))..((((((..........))))))................'
p224
tp225
asg68
g69
sbtp226
a((I71
I140
tp227
(icg.data
Data
p228
(dp229
g7
(icg.c.windowtranslate
Equal
p230
(dp231
bsg10
(lp232
(F-11.1
S'.......((((......)))).((((((..........))))))....((((.......)))).......'
p233
tp234
a(F-11.5
S'......(((((......))))).(((((..........))))).(((((..........)))))......'
p235
tp236
a(F-10.4
S'......((((........)))).(((((..........))))).(((((..........)))))......'
p237
tp238
a(F-10.9
S'......(((((......))))).(((((..........))))).....((((.......)))).......'
p239
tp240
asg68
g69
sbtp241
asb.