(icg.data
WindowData
p0
(dp1
S'windows'
p2
(lp3
((I1
I25
tp4
(icg.data
Data
p5
(dp6
S'optimal_score'
p7
(icg.c.windowtranslate
Equal
p8
(dp9
bsS'candidates'
p10
(lp11
(F-2.3999999999999999
S'(((...((((....))))..)))..'
p12
tp13
asS'algebra'
p14
S''
p15
sbtp16
a((I3
I27
tp17
(icg.data
Data
p18
(dp19
g7
(icg.c.windowtranslate
Equal
p20
(dp21
bsg10
(lp22
(F-2.2999999999999998
S'....((((((.........))))))'
p23
tp24
asg14
g15
sbtp25
a((I5
I29
tp26
(icg.data
Data
p27
(dp28
g7
(icg.c.windowtranslate
Equal
p29
(dp30
bsg10
(lp31
(F-2.2999999999999998
S'..((((((.........))))))..'
p32
tp33
asg14
g15
sbtp34
a((I7
I31
tp35
(icg.data
Data
p36
(dp37
g7
(icg.c.windowtranslate
Equal
p38
(dp39
bsg10
(lp40
(F-2.2999999999999998
S'((((((.........))))))....'
p41
tp42
asg14
g15
sbtp43
a((I9
I33
tp44
(icg.data
Data
p45
(dp46
g7
(icg.c.windowtranslate
Equal
p47
(dp48
bsg10
(lp49
(F-2.7999999999999998
S'.......((...((....))...))'
p50
tp51
asg14
g15
sbtp52
a((I11
I35
tp53
(icg.data
Data
p54
(dp55
g7
(icg.c.windowtranslate
Equal
p56
(dp57
bsg10
(lp58
(F-4.4000000000000004
S'....(((...((....))...))).'
p59
tp60
asg14
g15
sbtp61
a((I13
I37
tp62
(icg.data
Data
p63
(dp64
g7
(icg.c.windowtranslate
Equal
p65
(dp66
bsg10
(lp67
(F-4.4000000000000004
S'..(((...((....))...)))...'
p68
tp69
asg14
g15
sbtp70
a((I15
I39
tp71
(icg.data
Data
p72
(dp73
g7
(icg.c.windowtranslate
Equal
p74
(dp75
bsg10
(lp76
(F-4.4000000000000004
S'(((...((....))...))).....'
p77
tp78
asg14
g15
sbtp79
a((I17
I41
tp80
(icg.data
Data
p81
(dp82
g7
(icg.c.windowtranslate
Equal
p83
(dp84
bsg10
(lp85
(F-2.7999999999999998
S'(((.((....))...))).......'
p86
tp87
asg14
g15
sbtp88
a((I19
I43
tp89
(icg.data
Data
p90
(dp91
g7
(icg.c.windowtranslate
Equal
p92
(dp93
bsg10
(lp94
(F-2.0
S'..((....))...............'
p95
tp96
asg14
g15
sbtp97
a((I21
I45
tp98
(icg.data
Data
p99
(dp100
g7
(icg.c.windowtranslate
Equal
p101
(dp102
bsg10
(lp103
(F-3.0
S'((....))...((((......))))'
p104
tp105
asg14
g15
sbtp106
a((I23
I47
tp107
(icg.data
Data
p108
(dp109
g7
(icg.c.windowtranslate
Equal
p110
(dp111
bsg10
(lp112
(F-2.1000000000000001
S'........(((((......))))).'
p113
tp114
asg14
g15
sbtp115
a((I25
I49
tp116
(icg.data
Data
p117
(dp118
g7
(icg.c.windowtranslate
Equal
p119
(dp120
bsg10
(lp121
(F-2.1000000000000001
S'......(((((......)))))...'
p122
tp123
asg14
g15
sbtp124
a((I27
I51
tp125
(icg.data
Data
p126
(dp127
g7
(icg.c.windowtranslate
Equal
p128
(dp129
bsg10
(lp130
(F-2.1000000000000001
S'....(((((......))))).....'
p131
tp132
asg14
g15
sbtp133
a((I29
I53
tp134
(icg.data
Data
p135
(dp136
g7
(icg.c.windowtranslate
Equal
p137
(dp138
bsg10
(lp139
(F-2.1000000000000001
S'..(((((......))))).......'
p140
tp141
asg14
g15
sbtp142
a((I31
I55
tp143
(icg.data
Data
p144
(dp145
g7
(icg.c.windowtranslate
Equal
p146
(dp147
bsg10
(lp148
(F-2.1000000000000001
S'(((((......))))).........'
p149
tp150
asg14
g15
sbtp151
a((I33
I57
tp152
(icg.data
Data
p153
(dp154
g7
(icg.c.windowtranslate
Equal
p155
(dp156
bsg10
(lp157
(F0.0
S'.........................'
p158
tp159
asg14
g15
sbtp160
a((I35
I59
tp161
(icg.data
Data
p162
(dp163
g7
(icg.c.windowtranslate
Equal
p164
(dp165
bsg10
(lp166
(F0.0
S'.........................'
p167
tp168
asg14
g15
sbtp169
a((I37
I61
tp170
(icg.data
Data
p171
(dp172
g7
(icg.c.windowtranslate
Equal
p173
(dp174
bsg10
(lp175
(F0.0
S'.........................'
p176
tp177
asg14
g15
sbtp178
a((I39
I63
tp179
(icg.data
Data
p180
(dp181
g7
(icg.c.windowtranslate
Equal
p182
(dp183
bsg10
(lp184
(F0.0
S'.........................'
p185
tp186
asg14
g15
sbtp187
a((I41
I65
tp188
(icg.data
Data
p189
(dp190
g7
(icg.c.windowtranslate
Equal
p191
(dp192
bsg10
(lp193
(F0.0
S'.........................'
p194
tp195
asg14
g15
sbtp196
a((I43
I67
tp197
(icg.data
Data
p198
(dp199
g7
(icg.c.windowtranslate
Equal
p200
(dp201
bsg10
(lp202
(F0.0
S'.........................'
p203
tp204
asg14
g15
sbtp205
a((I45
I69
tp206
(icg.data
Data
p207
(dp208
g7
(icg.c.windowtranslate
Equal
p209
(dp210
bsg10
(lp211
(F0.0
S'.........................'
p212
tp213
asg14
g15
sbtp214
a((I47
I71
tp215
(icg.data
Data
p216
(dp217
g7
(icg.c.windowtranslate
Equal
p218
(dp219
bsg10
(lp220
(F0.0
S'.........................'
p221
tp222
asg14
g15
sbtp223
a((I49
I73
tp224
(icg.data
Data
p225
(dp226
g7
(icg.c.windowtranslate
Equal
p227
(dp228
bsg10
(lp229
(F0.0
S'.........................'
p230
tp231
asg14
g15
sbtp232
asb.